target datalayout = "e-m:e-p270:32:32-p271:32:32-p272:64:64-i64:64-i128:128-f80:128-n8:16:32:64-S128"
target triple = "x86_64-pc-linux-gnu"

%struct.beep_request_key = type { i32 }
%struct.conversation = type { ptr, ptr, ptr, i32, i32, i32, ptr, ptr, i32, ptr }
%struct._packet_info = type { ptr, ptr, i32, i32, %struct.nstime_t, %struct.nstime_t, %struct.nstime_t, i8, ptr, ptr, ptr, ptr, %struct._address, %struct._address, %struct._address, %struct._address, %struct._address, %struct._address, i32, ptr, i8, [3 x i8], %struct.anon, i32, i32, i32, i32, ptr, i8, ptr, ptr, i16, i16, i32, i32, i16, i32, i32, ptr, ptr, ptr, i8, i8, i16, i16, i16, i32, i16, i16, ptr, ptr, ptr, ptr, ptr, i32, i32 }
%struct.nstime_t = type { i64, i32 }
%struct._address = type { i32, i32, ptr, ptr }
%struct.anon = type { i8, [3 x i8] }
%struct.beep_proto_data = type { i32, i32, i32 }
%struct.beep_request_val = type { i16, i32, i32, i32 }

@hf_beep_payload = internal global i32 0, align 4
@ett_beep = internal global i32 0, align 4
@.str.43 = private unnamed_addr constant [5 x i8] c"BEEP\00", align 1
@proto_beep = internal global i32 0, align 4
@beep_request_hash = internal global ptr null, align 8

; Function Attrs: null_pointer_is_valid sspstrong uwtable
define internal i32 @dissect_beep(ptr noundef %0, ptr noundef %1, ptr noundef %2, ptr noundef %3) #0 {
  %5 = alloca ptr, align 8
  %6 = alloca ptr, align 8
  %7 = alloca ptr, align 8
  %8 = alloca ptr, align 8
  %9 = alloca i32, align 4
  %10 = alloca ptr, align 8
  %11 = alloca ptr, align 8
  %12 = alloca ptr, align 8
  %13 = alloca ptr, align 8
  %14 = alloca %struct.beep_request_key, align 4
  %15 = alloca ptr, align 8
  %16 = alloca ptr, align 8
  %17 = alloca i32, align 4
  %18 = alloca i32, align 4
  store ptr %0, ptr %5, align 8
  store ptr %1, ptr %6, align 8
  store ptr %2, ptr %7, align 8
  store ptr %3, ptr %8, align 8
  call void @llvm.lifetime.start.p0(i64 4, ptr %9) #7
  call void @llvm.lifetime.start.p0(i64 8, ptr %10) #7
  call void @llvm.lifetime.start.p0(i64 8, ptr %11) #7
  store ptr null, ptr %11, align 8
  call void @llvm.lifetime.start.p0(i64 8, ptr %12) #7
  store ptr null, ptr %12, align 8
  call void @llvm.lifetime.start.p0(i64 8, ptr %13) #7
  store ptr null, ptr %13, align 8
  call void @llvm.lifetime.start.p0(i64 4, ptr %14) #7
  call void @llvm.lifetime.start.p0(i64 8, ptr %15) #7
  call void @llvm.lifetime.start.p0(i64 8, ptr %16) #7
  store ptr null, ptr %16, align 8
  store i32 0, ptr %9, align 4
  %19 = call ptr @wmem_file_scope()
  %20 = load ptr, ptr %6, align 8
  %21 = load i32, ptr @proto_beep, align 4
  %22 = call ptr @p_get_proto_data(ptr noundef %19, ptr noundef %20, i32 noundef %21, i32 noundef 0)
  store ptr %22, ptr %10, align 8
  %23 = load ptr, ptr %10, align 8
  %24 = icmp ne ptr %23, null
  br i1 %24, label %51, label %25

25:                                               ; preds = %4
  %26 = load ptr, ptr %6, align 8
  %27 = call ptr @find_or_create_conversation(ptr noundef %26)
  store ptr %27, ptr %13, align 8
  %28 = load ptr, ptr %13, align 8
  %29 = getelementptr inbounds nuw %struct.conversation, ptr %28, i32 0, i32 3
  %30 = load i32, ptr %29, align 8
  %31 = getelementptr inbounds nuw %struct.beep_request_key, ptr %14, i32 0, i32 0
  store i32 %30, ptr %31, align 4
  %32 = load ptr, ptr @beep_request_hash, align 8
  %33 = call ptr @wmem_map_lookup(ptr noundef %32, ptr noundef %14)
  store ptr %33, ptr %16, align 8
  %34 = load ptr, ptr %16, align 8
  %35 = icmp ne ptr %34, null
  br i1 %35, label %50, label %36

36:                                               ; preds = %25
  %37 = call ptr @wmem_file_scope()
  %38 = call noalias ptr @wmem_alloc(ptr noundef %37, i64 noundef 4) #8
  store ptr %38, ptr %15, align 8
  %39 = load ptr, ptr %13, align 8
  %40 = getelementptr inbounds nuw %struct.conversation, ptr %39, i32 0, i32 3
  %41 = load i32, ptr %40, align 8
  %42 = load ptr, ptr %15, align 8
  %43 = getelementptr inbounds nuw %struct.beep_request_key, ptr %42, i32 0, i32 0
  store i32 %41, ptr %43, align 4
  %44 = call ptr @wmem_file_scope()
  %45 = call noalias ptr @wmem_alloc0(ptr noundef %44, i64 noundef 16) #8
  store ptr %45, ptr %16, align 8
  %46 = load ptr, ptr @beep_request_hash, align 8
  %47 = load ptr, ptr %15, align 8
  %48 = load ptr, ptr %16, align 8
  %49 = call ptr @wmem_map_insert(ptr noundef %46, ptr noundef %47, ptr noundef %48)
  br label %50

50:                                               ; preds = %36, %25
  br label %51

51:                                               ; preds = %50, %4
  %52 = load ptr, ptr %6, align 8
  %53 = getelementptr inbounds nuw %struct._packet_info, ptr %52, i32 0, i32 1
  %54 = load ptr, ptr %53, align 8
  call void @col_set_str(ptr noundef %54, i32 noundef 35, ptr noundef @.str.43)
  %55 = load ptr, ptr %5, align 8
  %56 = load i32, ptr %9, align 4
  %57 = call i32 @tvb_reported_length_remaining(ptr noundef %55, i32 noundef %56)
  %58 = icmp sgt i32 %57, 0
  br i1 %58, label %59, label %72

59:                                               ; preds = %51
  %60 = load ptr, ptr %6, align 8
  %61 = getelementptr inbounds nuw %struct._packet_info, ptr %60, i32 0, i32 1
  %62 = load ptr, ptr %61, align 8
  %63 = load ptr, ptr %6, align 8
  %64 = getelementptr inbounds nuw %struct._packet_info, ptr %63, i32 0, i32 51
  %65 = load ptr, ptr %64, align 8
  %66 = load ptr, ptr %5, align 8
  %67 = load i32, ptr %9, align 4
  %68 = load ptr, ptr %5, align 8
  %69 = load i32, ptr %9, align 4
  %70 = call i32 @tvb_reported_length_remaining(ptr noundef %68, i32 noundef %69)
  %71 = call ptr @tvb_format_text(ptr noundef %65, ptr noundef %66, i32 noundef %67, i32 noundef %70)
  call void @col_add_str(ptr noundef %62, i32 noundef 25, ptr noundef %71)
  br label %72

72:                                               ; preds = %59, %51
  %73 = load ptr, ptr %7, align 8
  %74 = icmp ne ptr %73, null
  br i1 %74, label %75, label %84

75:                                               ; preds = %72
  %76 = load ptr, ptr %7, align 8
  %77 = load i32, ptr @proto_beep, align 4
  %78 = load ptr, ptr %5, align 8
  %79 = load i32, ptr %9, align 4
  %80 = call ptr @proto_tree_add_item(ptr noundef %76, i32 noundef %77, ptr noundef %78, i32 noundef %79, i32 noundef -1, i32 noundef 0)
  store ptr %80, ptr %12, align 8
  %81 = load ptr, ptr %12, align 8
  %82 = load i32, ptr @ett_beep, align 4
  %83 = call ptr @proto_item_add_subtree(ptr noundef %81, i32 noundef %82)
  store ptr %83, ptr %11, align 8
  br label %84

84:                                               ; preds = %75, %72
  %85 = load ptr, ptr %10, align 8
  %86 = icmp ne ptr %85, null
  br i1 %86, label %87, label %141

87:                                               ; preds = %84
  %88 = load ptr, ptr %10, align 8
  %89 = getelementptr inbounds nuw %struct.beep_proto_data, ptr %88, i32 0, i32 0
  %90 = load i32, ptr %89, align 4
  %91 = icmp sgt i32 %90, 0
  br i1 %91, label %92, label %141

92:                                               ; preds = %87
  call void @llvm.lifetime.start.p0(i64 4, ptr %17) #7
  %93 = load ptr, ptr %10, align 8
  %94 = getelementptr inbounds nuw %struct.beep_proto_data, ptr %93, i32 0, i32 0
  %95 = load i32, ptr %94, align 4
  store i32 %95, ptr %17, align 4
  %96 = load i32, ptr %17, align 4
  %97 = load ptr, ptr %5, align 8
  %98 = load i32, ptr %9, align 4
  %99 = call i32 @tvb_reported_length_remaining(ptr noundef %97, i32 noundef %98)
  %100 = icmp sgt i32 0, %99
  br i1 %100, label %101, label %102

101:                                              ; preds = %92
  br label %106

102:                                              ; preds = %92
  %103 = load ptr, ptr %5, align 8
  %104 = load i32, ptr %9, align 4
  %105 = call i32 @tvb_reported_length_remaining(ptr noundef %103, i32 noundef %104)
  br label %106

106:                                              ; preds = %102, %101
  %107 = phi i32 [ 0, %101 ], [ %105, %102 ]
  %108 = icmp slt i32 %96, %107
  br i1 %108, label %109, label %111

109:                                              ; preds = %106
  %110 = load i32, ptr %17, align 4
  br label %123

111:                                              ; preds = %106
  %112 = load ptr, ptr %5, align 8
  %113 = load i32, ptr %9, align 4
  %114 = call i32 @tvb_reported_length_remaining(ptr noundef %112, i32 noundef %113)
  %115 = icmp sgt i32 0, %114
  br i1 %115, label %116, label %117

116:                                              ; preds = %111
  br label %121

117:                                              ; preds = %111
  %118 = load ptr, ptr %5, align 8
  %119 = load i32, ptr %9, align 4
  %120 = call i32 @tvb_reported_length_remaining(ptr noundef %118, i32 noundef %119)
  br label %121

121:                                              ; preds = %117, %116
  %122 = phi i32 [ 0, %116 ], [ %120, %117 ]
  br label %123

123:                                              ; preds = %121, %109
  %124 = phi i32 [ %110, %109 ], [ %122, %121 ]
  store i32 %124, ptr %17, align 4
  %125 = load ptr, ptr %7, align 8
  %126 = icmp ne ptr %125, null
  br i1 %126, label %127, label %137

127:                                              ; preds = %123
  %128 = load i32, ptr %17, align 4
  %129 = icmp sgt i32 %128, 0
  br i1 %129, label %130, label %137

130:                                              ; preds = %127
  %131 = load ptr, ptr %7, align 8
  %132 = load i32, ptr @hf_beep_payload, align 4
  %133 = load ptr, ptr %5, align 8
  %134 = load i32, ptr %9, align 4
  %135 = load i32, ptr %17, align 4
  %136 = call ptr @proto_tree_add_item(ptr noundef %131, i32 noundef %132, ptr noundef %133, i32 noundef %134, i32 noundef %135, i32 noundef 0)
  br label %137

137:                                              ; preds = %130, %127, %123
  %138 = load i32, ptr %17, align 4
  %139 = load i32, ptr %9, align 4
  %140 = add i32 %139, %138
  store i32 %140, ptr %9, align 4
  call void @llvm.lifetime.end.p0(i64 4, ptr %17) #7
  br label %169

141:                                              ; preds = %87, %84
  %142 = load ptr, ptr %16, align 8
  %143 = icmp ne ptr %142, null
  br i1 %143, label %144, label %168

144:                                              ; preds = %141
  %145 = load ptr, ptr %16, align 8
  %146 = getelementptr inbounds nuw %struct.beep_request_val, ptr %145, i32 0, i32 1
  %147 = load i32, ptr %146, align 4
  %148 = icmp sgt i32 %147, 0
  br i1 %148, label %149, label %168

149:                                              ; preds = %144
  call void @llvm.lifetime.start.p0(i64 4, ptr %18) #7
  %150 = load ptr, ptr %16, align 8
  %151 = getelementptr inbounds nuw %struct.beep_request_val, ptr %150, i32 0, i32 1
  %152 = load i32, ptr %151, align 4
  store i32 %152, ptr %18, align 4
  %153 = load ptr, ptr %16, align 8
  %154 = getelementptr inbounds nuw %struct.beep_request_val, ptr %153, i32 0, i32 1
  store i32 0, ptr %154, align 4
  %155 = call ptr @wmem_file_scope()
  %156 = call noalias ptr @wmem_alloc(ptr noundef %155, i64 noundef 12) #8
  store ptr %156, ptr %10, align 8
  %157 = load i32, ptr %18, align 4
  %158 = load ptr, ptr %10, align 8
  %159 = getelementptr inbounds nuw %struct.beep_proto_data, ptr %158, i32 0, i32 0
  store i32 %157, ptr %159, align 4
  %160 = load ptr, ptr %10, align 8
  %161 = getelementptr inbounds nuw %struct.beep_proto_data, ptr %160, i32 0, i32 1
  store i32 0, ptr %161, align 4
  %162 = load ptr, ptr %10, align 8
  %163 = getelementptr inbounds nuw %struct.beep_proto_data, ptr %162, i32 0, i32 2
  store i32 0, ptr %163, align 4
  %164 = call ptr @wmem_file_scope()
  %165 = load ptr, ptr %6, align 8
  %166 = load i32, ptr @proto_beep, align 4
  %167 = load ptr, ptr %10, align 8
  call void @p_add_proto_data(ptr noundef %164, ptr noundef %165, i32 noundef %166, i32 noundef 0, ptr noundef %167)
  call void @llvm.lifetime.end.p0(i64 4, ptr %18) #7
  br label %168

168:                                              ; preds = %149, %144, %141
  br label %169

169:                                              ; preds = %168, %137
  %170 = load ptr, ptr %10, align 8
  %171 = icmp eq ptr %170, null
  br i1 %171, label %172, label %185

172:                                              ; preds = %169
  %173 = call ptr @wmem_file_scope()
  %174 = call noalias ptr @wmem_alloc(ptr noundef %173, i64 noundef 12) #8
  store ptr %174, ptr %10, align 8
  %175 = load ptr, ptr %10, align 8
  %176 = getelementptr inbounds nuw %struct.beep_proto_data, ptr %175, i32 0, i32 0
  store i32 0, ptr %176, align 4
  %177 = load ptr, ptr %10, align 8
  %178 = getelementptr inbounds nuw %struct.beep_proto_data, ptr %177, i32 0, i32 1
  store i32 0, ptr %178, align 4
  %179 = load ptr, ptr %10, align 8
  %180 = getelementptr inbounds nuw %struct.beep_proto_data, ptr %179, i32 0, i32 2
  store i32 0, ptr %180, align 4
  %181 = call ptr @wmem_file_scope()
  %182 = load ptr, ptr %6, align 8
  %183 = load i32, ptr @proto_beep, align 4
  %184 = load ptr, ptr %10, align 8
  call void @p_add_proto_data(ptr noundef %181, ptr noundef %182, i32 noundef %183, i32 noundef 0, ptr noundef %184)
  br label %185

185:                                              ; preds = %172, %169
  %186 = load ptr, ptr %5, align 8
  %187 = load i32, ptr %9, align 4
  %188 = call i32 @tvb_reported_length_remaining(ptr noundef %186, i32 noundef %187)
  %189 = icmp sgt i32 %188, 0
  br i1 %189, label %190, label %198

190:                                              ; preds = %185
  %191 = load ptr, ptr %5, align 8
  %192 = load i32, ptr %9, align 4
  %193 = load ptr, ptr %6, align 8
  %194 = load ptr, ptr %11, align 8
  %195 = load ptr, ptr %16, align 8
  %196 = load ptr, ptr %10, align 8
  %197 = call i32 @dissect_beep_tree(ptr noundef %191, i32 noundef %192, ptr noundef %193, ptr noundef %194, ptr noundef %195, ptr noundef %196)
  br label %198

198:                                              ; preds = %190, %185
  %199 = load ptr, ptr %5, align 8
  %200 = call i32 @tvb_captured_length(ptr noundef %199)
  call void @llvm.lifetime.end.p0(i64 8, ptr %16) #7
  call void @llvm.lifetime.end.p0(i64 8, ptr %15) #7
  call void @llvm.lifetime.end.p0(i64 4, ptr %14) #7
  call void @llvm.lifetime.end.p0(i64 8, ptr %13) #7
  call void @llvm.lifetime.end.p0(i64 8, ptr %12) #7
  call void @llvm.lifetime.end.p0(i64 8, ptr %11) #7
  call void @llvm.lifetime.end.p0(i64 8, ptr %10) #7
  call void @llvm.lifetime.end.p0(i64 4, ptr %9) #7
  ret i32 %200
}