; Function Attrs: null_pointer_is_valid sspstrong uwtable
define internal i32 @dissect_beep(ptr noundef %0, ptr noundef %1, ptr noundef %2, ptr readnone captures(none) %3) #0 {
  %5 = alloca %struct.beep_request_key, align 4
  call void @llvm.lifetime.start.p0(i64 4, ptr nonnull %5) #7
  %6 = tail call ptr @wmem_file_scope()
  %7 = load i32, ptr @proto_beep, align 4
  %8 = tail call ptr @p_get_proto_data(ptr noundef %6, ptr noundef %1, i32 noundef %7, i32 noundef 0)
  %.not = icmp eq ptr %8, null
  br i1 %.not, label %9, label %23

9:                                                ; preds = %4
  %10 = tail call ptr @find_or_create_conversation(ptr noundef %1)
  %11 = getelementptr inbounds nuw i8, ptr %10, i64 24
  %12 = load i32, ptr %11, align 8
  store i32 %12, ptr %5, align 4
  %13 = load ptr, ptr @beep_request_hash, align 8
  %14 = call ptr @wmem_map_lookup(ptr noundef %13, ptr noundef nonnull %5)
  %.not79 = icmp eq ptr %14, null
  br i1 %.not79, label %15, label %23

15:                                               ; preds = %9
  %16 = call ptr @wmem_file_scope()
  %17 = call noalias dereferenceable_or_null(4) ptr @wmem_alloc(ptr noundef %16, i64 noundef 4) #8
  %18 = load i32, ptr %11, align 8
  store i32 %18, ptr %17, align 4
  %19 = call ptr @wmem_file_scope()
  %20 = call noalias dereferenceable_or_null(16) ptr @wmem_alloc0(ptr noundef %19, i64 noundef 16) #8
  %21 = load ptr, ptr @beep_request_hash, align 8
  %22 = call ptr @wmem_map_insert(ptr noundef %21, ptr noundef %17, ptr noundef %20)
  br label %23

23:                                               ; preds = %9, %15, %4
  %.069 = phi ptr [ null, %4 ], [ %14, %9 ], [ %20, %15 ]
  %24 = getelementptr inbounds nuw i8, ptr %1, i64 8
  %25 = load ptr, ptr %24, align 8
  call void @col_set_str(ptr noundef %25, i32 noundef 35, ptr noundef nonnull @.str.43)
  %26 = call i32 @tvb_reported_length_remaining(ptr noundef %0, i32 noundef 0)
  %27 = icmp sgt i32 %26, 0
  br i1 %27, label %28, label %34

28:                                               ; preds = %23
  %29 = load ptr, ptr %24, align 8
  %30 = getelementptr inbounds nuw i8, ptr %1, i64 408
  %31 = load ptr, ptr %30, align 8
  %32 = call i32 @tvb_reported_length_remaining(ptr noundef %0, i32 noundef 0)
  %33 = call ptr @tvb_format_text(ptr noundef %31, ptr noundef %0, i32 noundef 0, i32 noundef %32)
  call void @col_add_str(ptr noundef %29, i32 noundef 25, ptr noundef %33)
  br label %34

34:                                               ; preds = %28, %23
  %35 = icmp ne ptr %2, null
  br i1 %35, label %36, label %41

36:                                               ; preds = %34
  %37 = load i32, ptr @proto_beep, align 4
  %38 = call ptr @proto_tree_add_item(ptr noundef nonnull %2, i32 noundef %37, ptr noundef %0, i32 noundef 0, i32 noundef -1, i32 noundef 0)
  %39 = load i32, ptr @ett_beep, align 4
  %40 = call ptr @proto_item_add_subtree(ptr noundef %38, i32 noundef %39)
  br label %41

41:                                               ; preds = %36, %34
  %.071 = phi ptr [ %40, %36 ], [ null, %34 ]
  br i1 %.not, label %61, label %42

42:                                               ; preds = %41
  %43 = load i32, ptr %8, align 4
  %44 = icmp sgt i32 %43, 0
  br i1 %44, label %45, label %61

45:                                               ; preds = %42
  %46 = call i32 @tvb_reported_length_remaining(ptr noundef %0, i32 noundef 0)
  %47 = icmp slt i32 %46, 0
  br i1 %47, label %.thread, label %48

48:                                               ; preds = %45
  %49 = call i32 @tvb_reported_length_remaining(ptr noundef %0, i32 noundef 0)
  %50 = icmp slt i32 %43, %49
  br i1 %50, label %55, label %.thread

.thread:                                          ; preds = %45, %48
  %51 = call i32 @tvb_reported_length_remaining(ptr noundef %0, i32 noundef 0)
  %52 = icmp slt i32 %51, 0
  br i1 %52, label %.thread83, label %53

53:                                               ; preds = %.thread
  %54 = call i32 @tvb_reported_length_remaining(ptr noundef %0, i32 noundef 0)
  br label %55

55:                                               ; preds = %48, %53
  %56 = phi i32 [ %54, %53 ], [ %43, %48 ]
  %57 = icmp sgt i32 %56, 0
  %or.cond = select i1 %35, i1 %57, i1 false
  br i1 %or.cond, label %58, label %.thread83

58:                                               ; preds = %55
  %59 = load i32, ptr @hf_beep_payload, align 4
  %60 = call ptr @proto_tree_add_item(ptr noundef nonnull %2, i32 noundef %59, ptr noundef %0, i32 noundef 0, i32 noundef %56, i32 noundef 0)
  br label %.thread83

61:                                               ; preds = %42, %41
  %.not80 = icmp eq ptr %.069, null
  br i1 %.not80, label %73, label %62

62:                                               ; preds = %61
  %63 = getelementptr inbounds nuw i8, ptr %.069, i64 4
  %64 = load i32, ptr %63, align 4
  %65 = icmp sgt i32 %64, 0
  br i1 %65, label %66, label %73

66:                                               ; preds = %62
  store i32 0, ptr %63, align 4
  %67 = call ptr @wmem_file_scope()
  %68 = call noalias dereferenceable_or_null(12) ptr @wmem_alloc(ptr noundef %67, i64 noundef 12) #8
  store i32 %64, ptr %68, align 4
  %69 = getelementptr inbounds nuw i8, ptr %68, i64 4
  store i32 0, ptr %69, align 4
  %70 = getelementptr inbounds nuw i8, ptr %68, i64 8
  store i32 0, ptr %70, align 4
  %71 = call ptr @wmem_file_scope()
  %72 = load i32, ptr @proto_beep, align 4
  call void @p_add_proto_data(ptr noundef %71, ptr noundef %1, i32 noundef %72, i32 noundef 0, ptr noundef %68)
  br label %73

73:                                               ; preds = %61, %62, %66
  %.070 = phi ptr [ %68, %66 ], [ %8, %62 ], [ %8, %61 ]
  %74 = icmp eq ptr %.070, null
  br i1 %74, label %75, label %.thread83

75:                                               ; preds = %73
  %76 = call ptr @wmem_file_scope()
  %77 = call noalias dereferenceable_or_null(12) ptr @wmem_alloc(ptr noundef %76, i64 noundef 12) #8
  store i32 0, ptr %77, align 4
  %78 = getelementptr inbounds nuw i8, ptr %77, i64 4
  store i32 0, ptr %78, align 4
  %79 = getelementptr inbounds nuw i8, ptr %77, i64 8
  store i32 0, ptr %79, align 4
  %80 = call ptr @wmem_file_scope()
  %81 = load i32, ptr @proto_beep, align 4
  call void @p_add_proto_data(ptr noundef %80, ptr noundef %1, i32 noundef %81, i32 noundef 0, ptr noundef %77)
  br label %.thread83

.thread83:                                        ; preds = %.thread, %55, %58, %75, %73
  %.086 = phi i32 [ 0, %75 ], [ 0, %73 ], [ %56, %55 ], [ %56, %58 ], [ 0, %.thread ]
  %.1 = phi ptr [ %77, %75 ], [ %.070, %73 ], [ %8, %55 ], [ %8, %58 ], [ %8, %.thread ]
  %82 = call i32 @tvb_reported_length_remaining(ptr noundef %0, i32 noundef %.086)
  %83 = icmp sgt i32 %82, 0
  br i1 %83, label %84, label %86

84:                                               ; preds = %.thread83
  %85 = call fastcc i32 @dissect_beep_tree(ptr noundef %0, i32 noundef %.086, ptr noundef %1, ptr noundef %.071, ptr noundef %.069, ptr noundef %.1)
  br label %86

86:                                               ; preds = %84, %.thread83
  %87 = call i32 @tvb_captured_length(ptr noundef %0)
  call void @llvm.lifetime.end.p0(i64 4, ptr nonnull %5) #7
  ret i32 %87
}